(lp0
ccopy_reg
_reconstructor
p1
(c__main__
Problem
p2
c__builtin__
object
p3
Ntp4
Rp5
(dp6
S'task'
p7
S'Select all fields for all brands in the brands table.\n\nThe result set for this query should be every record in the brands table.'
p8
sS'hint'
p9
S"Use the wildcard '*' (without quotes) in your SELECT statement."
p10
sS'instruction'
p11
S''
p12
sS'solution'
p13
NsS'num'
p14
I1
sS'solution_hash'
p15
S'3486ae14326e00c77eca1b61b4d2fdf2'
p16
sbag1
(g2
g3
Ntp17
Rp18
(dp19
g7
S'Select all fields for all car models made by Pontiac in the\nmodels table.\n\nThe result set should be:\n model_id | year | brand_id |    name    \n----------+------+----------+------------\n       24 | 1961 | pon      | Tempest\n       26 | 1962 | pon      | Grand Prix\n       35 | 1963 | pon      | Grand Prix\n       41 | 1964 | pon      | LeMans\n       42 | 1964 | pon      | Bonneville\n       43 | 1964 | pon      | Grand Prix\n(6 rows)\n'
p20
sg9
S'Use a WHERE clause. What is the brand id for Pontiac?'
p21
sg11
g12
sg13
Nsg14
I2
sg15
S'f3460343288624358f36f2e241bdb344'
p22
sbag1
(g2
g3
Ntp23
Rp24
(dp25
g7
S'Select the brand id and model name for all models made in\n1964 from the models table.\n\nThe result set should be:\n brand_id |    name     \n----------+-------------\n che      | Corvette\n for      | Mustang\n for      | Galaxie\n pon      | LeMans\n pon      | Bonneville\n pon      | Grand Prix\n ply      | Fury\n stu      | Avanti\n aus      | Mini Cooper\n(9 rows)\n '
p26
sg9
S'Use a WHERE clause.'
p27
sg11
g12
sg13
Nsg14
I3
sg15
S'669137106426faabf698538c8742205b'
p28
sbag1
(g2
g3
Ntp29
Rp30
(dp31
g7
S'Select the model name, brand name, and headquarters for\nthe Ford Mustang from the models and brands tables.\n\nThe result set should be:\n model_name | brand_name | headquarters \n------------+------------+--------------\n Mustang    | Ford       | Dearborn, MI\n (1 rows)\n'
p32
sg9
S'Use a JOIN. Also, notice that we have sepcifically named the model and brand name columns in our result.'
p33
sg11
g12
sg13
Nsg14
I4
sg15
S'f14123d9861a2c06cbcbbc774358550b'
p34
sbag1
(g2
g3
Ntp35
Rp36
(dp37
g7
S'Select all rows for the three oldest brands from the brands\ntable.\n\nThe result set should be:\n brand_id |    name    | founded |    headquarters     | discontinued \n----------+------------+---------+---------------------+--------------\n stu      | Studebaker |    1852 | South Bend, Indiana |         1967\n ram      | Rambler    |    1901 | Kenosha, Washington |         1969\n cad      | Cadillac   |    1902 | New York City, NY   |             \n(3 rows)\n'
p38
sg9
S'Use LIMIT and ORDER BY.'
p39
sg11
g12
sg13
Nsg14
I5
sg15
S'9b3483af435ac2b5d69c6808032eab25'
p40
sbag1
(g2
g3
Ntp41
Rp42
(dp43
g7
S'Count the Ford models in the database. The output should be a\nnumber.\n\nThe result set should be:\n count \n-------\n     6\n(1 row)\n'
p44
sg9
S'Use the COUNT aggregate function.'
p45
sg11
g12
sg13
Nsg14
I6
sg15
S'165f9bc330e92fe684bf6607c143f29b'
p46
sbag1
(g2
g3
Ntp47
Rp48
(dp49
g7
S'Select the brand name of any and all car brands that are not\ndiscontinued.\n\nThe result set should be:\n   name    \n-----------\n Ford\n Chrysler\n Citroen\n Chevrolet\n Cadillac\n BMW\n Buick\n Tesla\n Subaru\n(9 rows)\n'
p50
sg9
S'Check for a NULL value in the discontinued field.'
p51
sg11
g12
sg13
Nsg14
I7
sg15
S'd6ee17c704259345a236cf3155880c98'
p52
sbag1
(g2
g3
Ntp53
Rp54
(dp55
g7
S'Select everything from rows 15-24 of the models table in\nalphabetical order by name. The result set should have 10 records.\n\nThe result set should be:\n model_id | year | brand_id |   name   \n----------+------+----------+----------\n        6 | 1954 | che      | Corvette\n        8 | 1955 | che      | Corvette\n       10 | 1956 | che      | Corvette\n       11 | 1957 | che      | Corvette\n       13 | 1958 | che      | Corvette\n       20 | 1960 | che      | Corvette\n       38 | 1964 | che      | Corvette\n       37 | 1963 | che      | Corvette\n       25 | 1961 | che      | Corvette\n       27 | 1962 | che      | Corvette\n(10 rows)\n'
p56
sg9
S'Use LIMIT, ORDER BY, and OFFSET.'
p57
sg11
g12
sg13
Nsg14
I8
sg15
S'1fb23f7c032cc53ac9c70b2b93621e86'
p58
sbag1
(g2
g3
Ntp59
Rp60
(dp61
g7
S'Select the model year, name, and id, and the award name for all of the models from 1964 and beyond. Include row(s)\nfor model(s) even if they have not won awards.\n\nNote that in the result set, the award name should be NULL if\nthe model is not in the awards table.\n\nSo, the result set should be:\n year |    name     | model_id |       name        \n------+-------------+----------+-------------------\n 2015 | Malibu      |       47 | IIHS Safety Award\n 2015 | Outback     |       48 | IIHS Safety Award\n 1964 | Mustang     |       39 | \n 1964 | Mini Cooper |       46 | \n 1964 | Galaxie     |       40 | \n 1964 | Corvette    |       38 | \n 1964 | Bonneville  |       42 | \n 1964 | LeMans      |       41 | \n 1964 | Fury        |       44 | \n 1964 | Avanti      |       45 | \n 1964 | Grand Prix  |       43 | \n(11 rows)\n'
p62
sg9
S'Think about the meaning of table ordering in the LEFT JOIN clause.\nWhat does it mean to LEFT JOIN table A to table B? What does it mean to\nleft join table B to table A?'
p63
sg11
g12
sg13
Nsg14
I9
sg15
S'235073c7d74015fea8444cbf8bebfee5'
p64
sbag1
(g2
g3
Ntp65
Rp66
(dp67
g7
S'Modify the query so it only selects brands who have models.'
p68
sg9
S'Think about a kind of join that matches both tables equally to\neach other.'
p69
sg11
S'Currently, the query below shows all brands, ordered by brand name, regardless of whether\nthey have models in the models table. For example, we again see that Tesla is in the result set.\n\n  SELECT b.name, \n         m.year, \n         m.name \n  FROM brands AS b \n    LEFT JOIN models AS m \n      ON b.brand_id = m.brand_id \n  ORDER BY b.name;'
p70
sg13
Nsg14
I10
sg15
S'751fe6498aca127e6d3da6bb80d8d0ed'
p71
sbag1
(g2
g3
Ntp72
Rp73
(dp74
g7
S'Modify the query to add another field to the results that gives\nthe number of years from the year of the model until the brand becomes\ndiscontinued.\n\nDisplay this new field with the name years_until_brand_discontinued. The correct\nresult set is:\n\n    name    |       name       | year | discontinued | years_until_brand_discontinued \n------------+------------------+------+--------------+--------------------------------\n Austin     | Mini             | 1959 |         1987 |                             28\n Austin     | Mini             | 1963 |         1987 |                             24\n Austin     | Mini Cooper      | 1961 |         1987 |                             26\n Austin     | Mini Cooper      | 1964 |         1987 |                             23\n Austin     | Mini Cooper S    | 1963 |         1987 |                             24\n Fairthorpe | Rockette         | 1960 |         1976 |                             16\n Hillman    | Minx Magnificent | 1950 |         1981 |                             31\n Plymouth   | Fury             | 1964 |         2001 |                             37\n Pontiac    | Bonneville       | 1964 |         2010 |                             46\n Pontiac    | Grand Prix       | 1962 |         2010 |                             48\n Pontiac    | Grand Prix       | 1963 |         2010 |                             47\n Pontiac    | Grand Prix       | 1964 |         2010 |                             46\n Pontiac    | LeMans           | 1964 |         2010 |                             46\n Pontiac    | Tempest          | 1961 |         2010 |                             49\n Rambler    | Classic          | 1963 |         1969 |                              6\n Studebaker | Avanti           | 1961 |         1967 |                              6\n Studebaker | Avanti           | 1962 |         1967 |                              5\n Studebaker | Avanti           | 1963 |         1967 |                              4\n Studebaker | Avanti           | 1964 |         1967 |                              3\n(19 rows)'
p75
sg9
S'You can use AS to rename a field in the result set.'
p76
sg11
S'The query below shows some brand information about each model\nin the models table whose brand has been discontinued.\n\n  SELECT b.name,\n         m.name,\n         m.year,\n         b.discontinued\n  FROM models AS m\n    LEFT JOIN brands AS b\n      ON m.brand_id = b.brand_id\n  WHERE b.discontinued IS NOT NULL\n  ORDER BY b.name, m.name, m.year;'
p77
sg13
Nsg14
I11
sg15
S'97055160bd2e486d11d80db953d0a55b'
p78
sbag1
(g2
g3
Ntp79
Rp80
(dp81
g7
S'Write a query that selects the name and year founded for brands that do NOT have any\nmodels in the models table.\n\nThe correct result set is:\n\n name  | founded\n-------+---------\n Tesla |    2003\n(1 rows)'
p82
sg9
S'You will need to use a JOIN.'
p83
sg11
g12
sg13
Nsg14
I12
sg15
S'65fdfd0f164ffd90ae7a671a28ddb1a4'
p84
sbag1
(g2
g3
Ntp85
Rp86
(dp87
g7
S'Select the brand id of any brand with more than 5 models in the\ndatabase using a HAVING clause.\n\nThe correct result set is:\n\n brand_id \n----------\n che\n pon\n for\n(3 rows)\n'
p88
sg9
S'In order to use HAVING, a GROUP BY clause is also necessary. You do\nnot need to use a JOIN.'
p89
sg11
S'FURTHER STUDY'
p90
sg13
Nsg14
I13
sg15
S'c9307244ad81e3a91e667e9dcc6b8ef6'
p91
sbag1
(g2
g3
Ntp92
Rp93
(dp94
g7
S'Using a subquery, select the name and year of any model whose\nyear is the same year that ANY brand was founded.\n\nThe result set should be:\n\n   name    | year \n-----------+------\n Imperial  | 1926\n Corvette  | 1953\n Corvette  | 1954\n Fleetwood | 1954\n(4 rows)'
p95
sg9
S'Use the IN keyword.'
p96
sg11
g12
sg13
Nsg14
I14
sg15
S'bea4f5703f8c397df62952c05b5240ef'
p97
sba.